(imatplotlib.font_manager
FontManager
p1
(dp2
S'afm_lookup_cache'
p3
(dp4
sS'ttflist'
p5
(lp6
ccopy_reg
_reconstructor
p7
(cmatplotlib.font_manager
FontEntry
p8
c__builtin__
object
p9
NtRp10
(dp11
S'style'
p12
S'normal'
p13
sS'name'
p14
S'STIXSize5'
p15
sS'weight'
p16
I400
sS'stretch'
p17
g13
sS'variant'
p18
g13
sS'fname'
p19
S'/usr/lib64/python2.4/site-packages/matplotlib/mpl-data/fonts/ttf/STIXSiz5Sym.ttf'
p20
sS'size'
p21
S'scalable'
p22
sbag7
(g8
g9
NtRp23
(dp24
g12
S'italic'
p25
sg14
S'STIXGeneral'
p26
sg16
I400
sg17
g13
sg18
g13
sg19
S'/usr/lib64/python2.4/site-packages/matplotlib/mpl-data/fonts/ttf/STIXGeneralItalic.ttf'
p27
sg21
g22
sbag7
(g8
g9
NtRp28
(dp29
g12
g13
sg14
S'STIXNonUnicode'
p30
sg16
I400
sg17
g13
sg18
g13
sg19
S'/usr/lib64/python2.4/site-packages/matplotlib/mpl-data/fonts/ttf/STIXNonUni.ttf'
p31
sg21
g22
sbag7
(g8
g9
NtRp32
(dp33
g12
g13
sg14
S'Bitstream Vera Sans'
p34
sg16
I700
sg17
g13
sg18
g13
sg19
S'/usr/lib64/python2.4/site-packages/matplotlib/mpl-data/fonts/ttf/VeraBd.ttf'
p35
sg21
g22
sbag7
(g8
g9
NtRp36
(dp37
g12
g13
sg14
S'STIXSize1'
p38
sg16
I400
sg17
g13
sg18
g13
sg19
S'/usr/lib64/python2.4/site-packages/matplotlib/mpl-data/fonts/ttf/STIXSiz1Sym.ttf'
p39
sg21
g22
sbag7
(g8
g9
NtRp40
(dp41
g12
g25
sg14
S'STIXNonUnicode'
p42
sg16
I400
sg17
g13
sg18
g13
sg19
S'/usr/lib64/python2.4/site-packages/matplotlib/mpl-data/fonts/ttf/STIXNonUniIta.ttf'
p43
sg21
g22
sbag7
(g8
g9
NtRp44
(dp45
g12
g13
sg14
S'Bitstream Vera Sans Mono'
p46
sg16
I400
sg17
g13
sg18
g13
sg19
S'/usr/lib64/python2.4/site-packages/matplotlib/mpl-data/fonts/ttf/VeraMono.ttf'
p47
sg21
g22
sbag7
(g8
g9
NtRp48
(dp49
g12
g13
sg14
S'STIXNonUnicode'
p50
sg16
I700
sg17
g13
sg18
g13
sg19
S'/usr/lib64/python2.4/site-packages/matplotlib/mpl-data/fonts/ttf/STIXNonUniBol.ttf'
p51
sg21
g22
sbag7
(g8
g9
NtRp52
(dp53
g12
g13
sg14
S'cmsy10'
p54
sg16
I400
sg17
g13
sg18
g13
sg19
S'/usr/lib64/python2.4/site-packages/matplotlib/mpl-data/fonts/ttf/cmsy10.ttf'
p55
sg21
g22
sbag7
(g8
g9
NtRp56
(dp57
g12
g13
sg14
S'STIXSize3'
p58
sg16
I700
sg17
g13
sg18
g13
sg19
S'/usr/lib64/python2.4/site-packages/matplotlib/mpl-data/fonts/ttf/STIXSiz3SymBol.ttf'
p59
sg21
g22
sbag7
(g8
g9
NtRp60
(dp61
g12
g13
sg14
S'STIXSize4'
p62
sg16
I700
sg17
g13
sg18
g13
sg19
S'/usr/lib64/python2.4/site-packages/matplotlib/mpl-data/fonts/ttf/STIXSiz4SymBol.ttf'
p63
sg21
g22
sbag7
(g8
g9
NtRp64
(dp65
g12
g13
sg14
S'cmr10'
p66
sg16
I400
sg17
g13
sg18
g13
sg19
S'/usr/lib64/python2.4/site-packages/matplotlib/mpl-data/fonts/ttf/cmr10.ttf'
p67
sg21
g22
sbag7
(g8
g9
NtRp68
(dp69
g12
g13
sg14
S'Bitstream Vera Serif'
p70
sg16
I700
sg17
g13
sg18
g13
sg19
S'/usr/lib64/python2.4/site-packages/matplotlib/mpl-data/fonts/ttf/VeraSeBd.ttf'
p71
sg21
g22
sbag7
(g8
g9
NtRp72
(dp73
g12
g13
sg14
S'STIXSize2'
p74
sg16
I700
sg17
g13
sg18
g13
sg19
S'/usr/lib64/python2.4/site-packages/matplotlib/mpl-data/fonts/ttf/STIXSiz2SymBol.ttf'
p75
sg21
g22
sbag7
(g8
g9
NtRp76
(dp77
g12
g25
sg14
S'STIXGeneral'
p78
sg16
I700
sg17
g13
sg18
g13
sg19
S'/usr/lib64/python2.4/site-packages/matplotlib/mpl-data/fonts/ttf/STIXGeneralBolIta.ttf'
p79
sg21
g22
sbag7
(g8
g9
NtRp80
(dp81
g12
g13
sg14
S'cmb10'
p82
sg16
I400
sg17
g13
sg18
g13
sg19
S'/usr/lib64/python2.4/site-packages/matplotlib/mpl-data/fonts/ttf/cmb10.ttf'
p83
sg21
g22
sbag7
(g8
g9
NtRp84
(dp85
g12
S'oblique'
p86
sg14
S'Bitstream Vera Sans Mono'
p87
sg16
I400
sg17
g13
sg18
g13
sg19
S'/usr/lib64/python2.4/site-packages/matplotlib/mpl-data/fonts/ttf/VeraMoIt.ttf'
p88
sg21
g22
sbag7
(g8
g9
NtRp89
(dp90
g12
g86
sg14
S'Bitstream Vera Sans Mono'
p91
sg16
I700
sg17
g13
sg18
g13
sg19
S'/usr/lib64/python2.4/site-packages/matplotlib/mpl-data/fonts/ttf/VeraMoBI.ttf'
p92
sg21
g22
sbag7
(g8
g9
NtRp93
(dp94
g12
g25
sg14
S'STIXNonUnicode'
p95
sg16
I700
sg17
g13
sg18
g13
sg19
S'/usr/lib64/python2.4/site-packages/matplotlib/mpl-data/fonts/ttf/STIXNonUniBolIta.ttf'
p96
sg21
g22
sbag7
(g8
g9
NtRp97
(dp98
g12
g13
sg14
S'STIXGeneral'
p99
sg16
I700
sg17
g13
sg18
g13
sg19
S'/usr/lib64/python2.4/site-packages/matplotlib/mpl-data/fonts/ttf/STIXGeneralBol.ttf'
p100
sg21
g22
sbag7
(g8
g9
NtRp101
(dp102
g12
g13
sg14
S'STIXGeneral'
p103
sg16
I400
sg17
g13
sg18
g13
sg19
S'/usr/lib64/python2.4/site-packages/matplotlib/mpl-data/fonts/ttf/STIXGeneral.ttf'
p104
sg21
g22
sbag7
(g8
g9
NtRp105
(dp106
g12
g13
sg14
S'cmex10'
p107
sg16
I400
sg17
g13
sg18
g13
sg19
S'/usr/lib64/python2.4/site-packages/matplotlib/mpl-data/fonts/ttf/cmex10.ttf'
p108
sg21
g22
sbag7
(g8
g9
NtRp109
(dp110
g12
g86
sg14
S'Bitstream Vera Sans'
p111
sg16
I400
sg17
g13
sg18
g13
sg19
S'/usr/lib64/python2.4/site-packages/matplotlib/mpl-data/fonts/ttf/VeraIt.ttf'
p112
sg21
g22
sbag7
(g8
g9
NtRp113
(dp114
g12
g86
sg14
S'Bitstream Vera Sans'
p115
sg16
I700
sg17
g13
sg18
g13
sg19
S'/usr/lib64/python2.4/site-packages/matplotlib/mpl-data/fonts/ttf/VeraBI.ttf'
p116
sg21
g22
sbag7
(g8
g9
NtRp117
(dp118
g12
g13
sg14
S'Bitstream Vera Serif'
p119
sg16
I400
sg17
g13
sg18
g13
sg19
S'/usr/lib64/python2.4/site-packages/matplotlib/mpl-data/fonts/ttf/VeraSe.ttf'
p120
sg21
g22
sbag7
(g8
g9
NtRp121
(dp122
g12
g13
sg14
S'STIXSize1'
p123
sg16
I700
sg17
g13
sg18
g13
sg19
S'/usr/lib64/python2.4/site-packages/matplotlib/mpl-data/fonts/ttf/STIXSiz1SymBol.ttf'
p124
sg21
g22
sbag7
(g8
g9
NtRp125
(dp126
g12
g13
sg14
S'STIXSize3'
p127
sg16
I400
sg17
g13
sg18
g13
sg19
S'/usr/lib64/python2.4/site-packages/matplotlib/mpl-data/fonts/ttf/STIXSiz3Sym.ttf'
p128
sg21
g22
sbag7
(g8
g9
NtRp129
(dp130
g12
g13
sg14
S'Bitstream Vera Sans Mono'
p131
sg16
I700
sg17
g13
sg18
g13
sg19
S'/usr/lib64/python2.4/site-packages/matplotlib/mpl-data/fonts/ttf/VeraMoBd.ttf'
p132
sg21
g22
sbag7
(g8
g9
NtRp133
(dp134
g12
g13
sg14
S'cmmi10'
p135
sg16
I400
sg17
g13
sg18
g13
sg19
S'/usr/lib64/python2.4/site-packages/matplotlib/mpl-data/fonts/ttf/cmmi10.ttf'
p136
sg21
g22
sbag7
(g8
g9
NtRp137
(dp138
g12
g13
sg14
S'STIXSize2'
p139
sg16
I400
sg17
g13
sg18
g13
sg19
S'/usr/lib64/python2.4/site-packages/matplotlib/mpl-data/fonts/ttf/STIXSiz2Sym.ttf'
p140
sg21
g22
sbag7
(g8
g9
NtRp141
(dp142
g12
g13
sg14
S'STIXSize4'
p143
sg16
I400
sg17
g13
sg18
g13
sg19
S'/usr/lib64/python2.4/site-packages/matplotlib/mpl-data/fonts/ttf/STIXSiz4Sym.ttf'
p144
sg21
g22
sbag7
(g8
g9
NtRp145
(dp146
g12
g13
sg14
S'cmss10'
p147
sg16
I400
sg17
g13
sg18
g13
sg19
S'/usr/lib64/python2.4/site-packages/matplotlib/mpl-data/fonts/ttf/cmss10.ttf'
p148
sg21
g22
sbag7
(g8
g9
NtRp149
(dp150
g12
g13
sg14
S'Bitstream Vera Sans'
p151
sg16
I400
sg17
g13
sg18
g13
sg19
S'/usr/lib64/python2.4/site-packages/matplotlib/mpl-data/fonts/ttf/Vera.ttf'
p152
sg21
g22
sbag7
(g8
g9
NtRp153
(dp154
g12
g13
sg14
S'cmtt10'
p155
sg16
I400
sg17
g13
sg18
g13
sg19
S'/usr/lib64/python2.4/site-packages/matplotlib/mpl-data/fonts/ttf/cmtt10.ttf'
p156
sg21
g22
sbag7
(g8
g9
NtRp157
(dp158
g12
g13
sg14
S'DejaVu LGC Serif'
p159
sg16
I400
sg17
g13
sg18
g13
sg19
S'/usr/share/fonts/dejavu-lgc/DejaVuLGCSerif.ttf'
p160
sg21
g22
sbag7
(g8
g9
NtRp161
(dp162
g12
g13
sg14
S'DejaVu LGC Serif'
p163
sg16
I700
sg17
g13
sg18
g13
sg19
S'/usr/share/fonts/dejavu-lgc/DejaVuLGCSerif-Bold.ttf'
p164
sg21
g22
sbag7
(g8
g9
NtRp165
(dp166
g12
g13
sg14
S'Liberation Sans'
p167
sg16
I400
sg17
g13
sg18
g13
sg19
S'/usr/share/fonts/liberation/LiberationSans-Regular.ttf'
p168
sg21
g22
sbag7
(g8
g9
NtRp169
(dp170
g12
g13
sg14
S'DejaVu LGC Sans'
p171
sg16
I400
sg17
g13
sg18
g13
sg19
S'/usr/share/fonts/dejavu-lgc/DejaVuLGCSans.ttf'
p172
sg21
g22
sbag7
(g8
g9
NtRp173
(dp174
g12
g86
sg14
S'DejaVu LGC Serif'
p175
sg16
I400
sg17
g13
sg18
g13
sg19
S'/usr/share/fonts/dejavu-lgc/DejaVuLGCSerif-Oblique.ttf'
p176
sg21
g22
sbag7
(g8
g9
NtRp177
(dp178
g12
g86
sg14
S'DejaVu LGC Sans Mono'
p179
sg16
I400
sg17
g13
sg18
g13
sg19
S'/usr/share/fonts/dejavu-lgc/DejaVuLGCSansMono-Oblique.ttf'
p180
sg21
g22
sbag7
(g8
g9
NtRp181
(dp182
g12
g86
sg14
S'DejaVu Serif'
p183
sg16
I700
sg17
S'condensed'
p184
sg18
g13
sg19
S'/usr/share/fonts/dejavu-lgc/DejaVuLGCSerifCondensed-BoldOblique.ttf'
p185
sg21
g22
sbag7
(g8
g9
NtRp186
(dp187
g12
g13
sg14
S'Liberation Sans'
p188
sg16
I700
sg17
g13
sg18
g13
sg19
S'/usr/share/fonts/liberation/LiberationSans-Bold.ttf'
p189
sg21
g22
sbag7
(g8
g9
NtRp190
(dp191
g12
g13
sg14
S'Liberation Serif'
p192
sg16
I700
sg17
g13
sg18
g13
sg19
S'/usr/share/fonts/liberation/LiberationSerif-Bold.ttf'
p193
sg21
g22
sbag7
(g8
g9
NtRp194
(dp195
g12
g86
sg14
S'DejaVu LGC Sans'
p196
sg16
I700
sg17
g13
sg18
g13
sg19
S'/usr/share/fonts/dejavu-lgc/DejaVuLGCSans-BoldOblique.ttf'
p197
sg21
g22
sbag7
(g8
g9
NtRp198
(dp199
g12
g25
sg14
S'Liberation Serif'
p200
sg16
I400
sg17
g13
sg18
g13
sg19
S'/usr/share/fonts/liberation/LiberationSerif-Italic.ttf'
p201
sg21
g22
sbag7
(g8
g9
NtRp202
(dp203
g12
g13
sg14
S'DejaVu LGC Sans Mono'
p204
sg16
I700
sg17
g13
sg18
g13
sg19
S'/usr/share/fonts/dejavu-lgc/DejaVuLGCSansMono-Bold.ttf'
p205
sg21
g22
sbag7
(g8
g9
NtRp206
(dp207
g12
g86
sg14
S'DejaVu LGC Sans'
p208
sg16
I400
sg17
g13
sg18
g13
sg19
S'/usr/share/fonts/dejavu-lgc/DejaVuLGCSans-Oblique.ttf'
p209
sg21
g22
sbag7
(g8
g9
NtRp210
(dp211
g12
g25
sg14
S'Liberation Sans'
p212
sg16
I400
sg17
g13
sg18
g13
sg19
S'/usr/share/fonts/liberation/LiberationSans-Italic.ttf'
p213
sg21
g22
sbag7
(g8
g9
NtRp214
(dp215
g12
g13
sg14
S'DejaVu Sans'
p216
sg16
I200
sg17
g13
sg18
g13
sg19
S'/usr/share/fonts/dejavu-lgc/DejaVuLGCSans-ExtraLight.ttf'
p217
sg21
g22
sbag7
(g8
g9
NtRp218
(dp219
g12
g13
sg14
S'Liberation Mono'
p220
sg16
I400
sg17
g13
sg18
g13
sg19
S'/usr/share/fonts/liberation/LiberationMono-Regular.ttf'
p221
sg21
g22
sbag7
(g8
g9
NtRp222
(dp223
g12
g86
sg14
S'DejaVu Sans'
p224
sg16
I700
sg17
g184
sg18
g13
sg19
S'/usr/share/fonts/dejavu-lgc/DejaVuLGCSansCondensed-BoldOblique.ttf'
p225
sg21
g22
sbag7
(g8
g9
NtRp226
(dp227
g12
g13
sg14
S'DejaVu LGC Sans Mono'
p228
sg16
I400
sg17
g13
sg18
g13
sg19
S'/usr/share/fonts/dejavu-lgc/DejaVuLGCSansMono.ttf'
p229
sg21
g22
sbag7
(g8
g9
NtRp230
(dp231
g12
g86
sg14
S'DejaVu LGC Sans Mono'
p232
sg16
I700
sg17
g13
sg18
g13
sg19
S'/usr/share/fonts/dejavu-lgc/DejaVuLGCSansMono-BoldOblique.ttf'
p233
sg21
g22
sbag7
(g8
g9
NtRp234
(dp235
g12
g25
sg14
S'Liberation Mono'
p236
sg16
I400
sg17
g13
sg18
g13
sg19
S'/usr/share/fonts/liberation/LiberationMono-Italic.ttf'
p237
sg21
g22
sbag7
(g8
g9
NtRp238
(dp239
g12
g25
sg14
S'Liberation Sans'
p240
sg16
I700
sg17
g13
sg18
g13
sg19
S'/usr/share/fonts/liberation/LiberationSans-BoldItalic.ttf'
p241
sg21
g22
sbag7
(g8
g9
NtRp242
(dp243
g12
g13
sg14
S'DejaVu Sans'
p244
sg16
I700
sg17
g184
sg18
g13
sg19
S'/usr/share/fonts/dejavu-lgc/DejaVuLGCSansCondensed-Bold.ttf'
p245
sg21
g22
sbag7
(g8
g9
NtRp246
(dp247
g12
g13
sg14
S'DejaVu Serif'
p248
sg16
I700
sg17
g184
sg18
g13
sg19
S'/usr/share/fonts/dejavu-lgc/DejaVuLGCSerifCondensed-Bold.ttf'
p249
sg21
g22
sbag7
(g8
g9
NtRp250
(dp251
g12
g25
sg14
S'Liberation Mono'
p252
sg16
I700
sg17
g13
sg18
g13
sg19
S'/usr/share/fonts/liberation/LiberationMono-BoldItalic.ttf'
p253
sg21
g22
sbag7
(g8
g9
NtRp254
(dp255
g12
g86
sg14
S'DejaVu Serif'
p256
sg16
I400
sg17
g184
sg18
g13
sg19
S'/usr/share/fonts/dejavu-lgc/DejaVuLGCSerifCondensed-Oblique.ttf'
p257
sg21
g22
sbag7
(g8
g9
NtRp258
(dp259
g12
g13
sg14
S'DejaVu Sans'
p260
sg16
I400
sg17
g184
sg18
g13
sg19
S'/usr/share/fonts/dejavu-lgc/DejaVuLGCSansCondensed.ttf'
p261
sg21
g22
sbag7
(g8
g9
NtRp262
(dp263
g12
g86
sg14
S'DejaVu Sans'
p264
sg16
I400
sg17
g184
sg18
g13
sg19
S'/usr/share/fonts/dejavu-lgc/DejaVuLGCSansCondensed-Oblique.ttf'
p265
sg21
g22
sbag7
(g8
g9
NtRp266
(dp267
g12
g13
sg14
S'Liberation Mono'
p268
sg16
I700
sg17
g13
sg18
g13
sg19
S'/usr/share/fonts/liberation/LiberationMono-Bold.ttf'
p269
sg21
g22
sbag7
(g8
g9
NtRp270
(dp271
g12
g13
sg14
S'Liberation Serif'
p272
sg16
I400
sg17
g13
sg18
g13
sg19
S'/usr/share/fonts/liberation/LiberationSerif-Regular.ttf'
p273
sg21
g22
sbag7
(g8
g9
NtRp274
(dp275
g12
g13
sg14
S'DejaVu LGC Sans'
p276
sg16
I700
sg17
g13
sg18
g13
sg19
S'/usr/share/fonts/dejavu-lgc/DejaVuLGCSans-Bold.ttf'
p277
sg21
g22
sbag7
(g8
g9
NtRp278
(dp279
g12
g86
sg14
S'DejaVu LGC Serif'
p280
sg16
I700
sg17
g13
sg18
g13
sg19
S'/usr/share/fonts/dejavu-lgc/DejaVuLGCSerif-BoldOblique.ttf'
p281
sg21
g22
sbag7
(g8
g9
NtRp282
(dp283
g12
g13
sg14
S'DejaVu Serif'
p284
sg16
I400
sg17
g184
sg18
g13
sg19
S'/usr/share/fonts/dejavu-lgc/DejaVuLGCSerifCondensed.ttf'
p285
sg21
g22
sbag7
(g8
g9
NtRp286
(dp287
g12
g25
sg14
S'Liberation Serif'
p288
sg16
I700
sg17
g13
sg18
g13
sg19
S'/usr/share/fonts/liberation/LiberationSerif-BoldItalic.ttf'
p289
sg21
g22
sbasS'ttffiles'
p290
(lp291
S'/usr/lib64/python2.4/site-packages/matplotlib/mpl-data/fonts/ttf/STIXSiz5Sym.ttf'
p292
aS'/usr/lib64/python2.4/site-packages/matplotlib/mpl-data/fonts/ttf/STIXGeneralItalic.ttf'
p293
aS'/usr/lib64/python2.4/site-packages/matplotlib/mpl-data/fonts/ttf/STIXNonUni.ttf'
p294
aS'/usr/lib64/python2.4/site-packages/matplotlib/mpl-data/fonts/ttf/VeraBd.ttf'
p295
aS'/usr/lib64/python2.4/site-packages/matplotlib/mpl-data/fonts/ttf/STIXSiz1Sym.ttf'
p296
aS'/usr/lib64/python2.4/site-packages/matplotlib/mpl-data/fonts/ttf/STIXNonUniIta.ttf'
p297
aS'/usr/lib64/python2.4/site-packages/matplotlib/mpl-data/fonts/ttf/VeraMono.ttf'
p298
aS'/usr/lib64/python2.4/site-packages/matplotlib/mpl-data/fonts/ttf/STIXNonUniBol.ttf'
p299
aS'/usr/lib64/python2.4/site-packages/matplotlib/mpl-data/fonts/ttf/cmsy10.ttf'
p300
aS'/usr/lib64/python2.4/site-packages/matplotlib/mpl-data/fonts/ttf/STIXSiz3SymBol.ttf'
p301
aS'/usr/lib64/python2.4/site-packages/matplotlib/mpl-data/fonts/ttf/STIXSiz4SymBol.ttf'
p302
aS'/usr/lib64/python2.4/site-packages/matplotlib/mpl-data/fonts/ttf/cmr10.ttf'
p303
aS'/usr/lib64/python2.4/site-packages/matplotlib/mpl-data/fonts/ttf/VeraSeBd.ttf'
p304
aS'/usr/lib64/python2.4/site-packages/matplotlib/mpl-data/fonts/ttf/STIXSiz2SymBol.ttf'
p305
aS'/usr/lib64/python2.4/site-packages/matplotlib/mpl-data/fonts/ttf/STIXGeneralBolIta.ttf'
p306
aS'/usr/lib64/python2.4/site-packages/matplotlib/mpl-data/fonts/ttf/cmb10.ttf'
p307
aS'/usr/lib64/python2.4/site-packages/matplotlib/mpl-data/fonts/ttf/VeraMoIt.ttf'
p308
aS'/usr/lib64/python2.4/site-packages/matplotlib/mpl-data/fonts/ttf/VeraMoBI.ttf'
p309
aS'/usr/lib64/python2.4/site-packages/matplotlib/mpl-data/fonts/ttf/STIXNonUniBolIta.ttf'
p310
aS'/usr/lib64/python2.4/site-packages/matplotlib/mpl-data/fonts/ttf/STIXGeneralBol.ttf'
p311
aS'/usr/lib64/python2.4/site-packages/matplotlib/mpl-data/fonts/ttf/STIXGeneral.ttf'
p312
aS'/usr/lib64/python2.4/site-packages/matplotlib/mpl-data/fonts/ttf/cmex10.ttf'
p313
aS'/usr/lib64/python2.4/site-packages/matplotlib/mpl-data/fonts/ttf/VeraIt.ttf'
p314
aS'/usr/lib64/python2.4/site-packages/matplotlib/mpl-data/fonts/ttf/VeraBI.ttf'
p315
aS'/usr/lib64/python2.4/site-packages/matplotlib/mpl-data/fonts/ttf/VeraSe.ttf'
p316
aS'/usr/lib64/python2.4/site-packages/matplotlib/mpl-data/fonts/ttf/STIXSiz1SymBol.ttf'
p317
aS'/usr/lib64/python2.4/site-packages/matplotlib/mpl-data/fonts/ttf/STIXSiz3Sym.ttf'
p318
aS'/usr/lib64/python2.4/site-packages/matplotlib/mpl-data/fonts/ttf/VeraMoBd.ttf'
p319
aS'/usr/lib64/python2.4/site-packages/matplotlib/mpl-data/fonts/ttf/cmmi10.ttf'
p320
aS'/usr/lib64/python2.4/site-packages/matplotlib/mpl-data/fonts/ttf/STIXSiz2Sym.ttf'
p321
aS'/usr/lib64/python2.4/site-packages/matplotlib/mpl-data/fonts/ttf/STIXSiz4Sym.ttf'
p322
aS'/usr/lib64/python2.4/site-packages/matplotlib/mpl-data/fonts/ttf/cmss10.ttf'
p323
aS'/usr/lib64/python2.4/site-packages/matplotlib/mpl-data/fonts/ttf/Vera.ttf'
p324
aS'/usr/lib64/python2.4/site-packages/matplotlib/mpl-data/fonts/ttf/cmtt10.ttf'
p325
aS'/usr/share/fonts/dejavu-lgc/DejaVuLGCSerif.ttf'
p326
aS'/usr/share/fonts/bitstream-vera/VeraMono.ttf'
p327
aS'/usr/share/fonts/dejavu-lgc/DejaVuLGCSerif-Bold.ttf'
p328
aS'/usr/share/fonts/liberation/LiberationSans-Regular.ttf'
p329
aS'/usr/share/fonts/dejavu-lgc/DejaVuLGCSans.ttf'
p330
aS'/usr/share/fonts/dejavu-lgc/DejaVuLGCSerif-Oblique.ttf'
p331
aS'/usr/share/fonts/dejavu-lgc/DejaVuLGCSansMono-Oblique.ttf'
p332
aS'/usr/share/fonts/dejavu-lgc/DejaVuLGCSerifCondensed-BoldOblique.ttf'
p333
aS'/usr/share/fonts/liberation/LiberationSans-Bold.ttf'
p334
aS'/usr/share/fonts/liberation/LiberationSerif-Bold.ttf'
p335
aS'/usr/share/fonts/dejavu-lgc/DejaVuLGCSans-BoldOblique.ttf'
p336
aS'/usr/share/fonts/liberation/LiberationSerif-Italic.ttf'
p337
aS'/usr/share/fonts/dejavu-lgc/DejaVuLGCSansMono-Bold.ttf'
p338
aS'/usr/share/fonts/dejavu-lgc/DejaVuLGCSans-Oblique.ttf'
p339
aS'/usr/share/fonts/bitstream-vera/VeraMoBd.ttf'
p340
aS'/usr/share/fonts/liberation/LiberationSans-Italic.ttf'
p341
aS'/usr/share/fonts/bitstream-vera/Vera.ttf'
p342
aS'/usr/share/fonts/dejavu-lgc/DejaVuLGCSans-ExtraLight.ttf'
p343
aS'/usr/share/fonts/bitstream-vera/VeraBI.ttf'
p344
aS'/usr/share/fonts/liberation/LiberationMono-Regular.ttf'
p345
aS'/usr/share/fonts/dejavu-lgc/DejaVuLGCSansCondensed-BoldOblique.ttf'
p346
aS'/usr/share/fonts/dejavu-lgc/DejaVuLGCSansMono.ttf'
p347
aS'/usr/share/fonts/bitstream-vera/VeraIt.ttf'
p348
aS'/usr/share/fonts/dejavu-lgc/DejaVuLGCSansMono-BoldOblique.ttf'
p349
aS'/usr/share/fonts/liberation/LiberationMono-Italic.ttf'
p350
aS'/usr/share/fonts/bitstream-vera/VeraSe.ttf'
p351
aS'/usr/share/fonts/liberation/LiberationSans-BoldItalic.ttf'
p352
aS'/usr/share/fonts/bitstream-vera/VeraMoBI.ttf'
p353
aS'/usr/share/fonts/dejavu-lgc/DejaVuLGCSansCondensed-Bold.ttf'
p354
aS'/usr/share/fonts/dejavu-lgc/DejaVuLGCSerifCondensed-Bold.ttf'
p355
aS'/usr/share/fonts/bitstream-vera/VeraSeBd.ttf'
p356
aS'/usr/share/fonts/liberation/LiberationMono-BoldItalic.ttf'
p357
aS'/usr/share/fonts/bitstream-vera/VeraBd.ttf'
p358
aS'/usr/share/fonts/dejavu-lgc/DejaVuLGCSerifCondensed-Oblique.ttf'
p359
aS'/usr/share/fonts/dejavu-lgc/DejaVuLGCSansCondensed.ttf'
p360
aS'/usr/share/fonts/dejavu-lgc/DejaVuLGCSansCondensed-Oblique.ttf'
p361
aS'/usr/share/fonts/liberation/LiberationMono-Bold.ttf'
p362
aS'/usr/share/fonts/liberation/LiberationSerif-Regular.ttf'
p363
aS'/usr/share/fonts/bitstream-vera/VeraMoIt.ttf'
p364
aS'/usr/share/fonts/dejavu-lgc/DejaVuLGCSans-Bold.ttf'
p365
aS'/usr/share/fonts/dejavu-lgc/DejaVuLGCSerif-BoldOblique.ttf'
p366
aS'/usr/share/fonts/dejavu-lgc/DejaVuLGCSerifCondensed.ttf'
p367
aS'/usr/share/fonts/liberation/LiberationSerif-BoldItalic.ttf'
p368
asS'_FontManager__default_weight'
p369
g13
sS'ttf_lookup_cache'
p370
(dp371
sS'default_size'
p372
NsS'defaultFont'
p373
g324
sS'afmfiles'
p374
(lp375
S'/usr/lib64/python2.4/site-packages/matplotlib/mpl-data/fonts/afm/pcrr8a.afm'
p376
aS'/usr/lib64/python2.4/site-packages/matplotlib/mpl-data/fonts/afm/phvbo8a.afm'
p377
aS'/usr/lib64/python2.4/site-packages/matplotlib/mpl-data/fonts/afm/ptmbi8a.afm'
p378
aS'/usr/lib64/python2.4/site-packages/matplotlib/mpl-data/fonts/afm/cmsy10.afm'
p379
aS'/usr/lib64/python2.4/site-packages/matplotlib/mpl-data/fonts/afm/ptmb8a.afm'
p380
aS'/usr/lib64/python2.4/site-packages/matplotlib/mpl-data/fonts/afm/phvro8an.afm'
p381
aS'/usr/lib64/python2.4/site-packages/matplotlib/mpl-data/fonts/afm/cmex10.afm'
p382
aS'/usr/lib64/python2.4/site-packages/matplotlib/mpl-data/fonts/afm/pcrb8a.afm'
p383
aS'/usr/lib64/python2.4/site-packages/matplotlib/mpl-data/fonts/afm/pagdo8a.afm'
p384
aS'/usr/lib64/python2.4/site-packages/matplotlib/mpl-data/fonts/afm/putbi8a.afm'
p385
aS'/usr/lib64/python2.4/site-packages/matplotlib/mpl-data/fonts/afm/cmr10.afm'
p386
aS'/usr/lib64/python2.4/site-packages/matplotlib/mpl-data/fonts/afm/pbkli8a.afm'
p387
aS'/usr/lib64/python2.4/site-packages/matplotlib/mpl-data/fonts/afm/pzdr.afm'
p388
aS'/usr/lib64/python2.4/site-packages/matplotlib/mpl-data/fonts/afm/putr8a.afm'
p389
aS'/usr/lib64/python2.4/site-packages/matplotlib/mpl-data/fonts/afm/putri8a.afm'
p390
aS'/usr/lib64/python2.4/site-packages/matplotlib/mpl-data/fonts/afm/phvlo8a.afm'
p391
aS'/usr/lib64/python2.4/site-packages/matplotlib/mpl-data/fonts/afm/pcrbo8a.afm'
p392
aS'/usr/lib64/python2.4/site-packages/matplotlib/mpl-data/fonts/afm/phvro8a.afm'
p393
aS'/usr/lib64/python2.4/site-packages/matplotlib/mpl-data/fonts/afm/phvr8an.afm'
p394
aS'/usr/lib64/python2.4/site-packages/matplotlib/mpl-data/fonts/afm/pagko8a.afm'
p395
aS'/usr/lib64/python2.4/site-packages/matplotlib/mpl-data/fonts/afm/ptmri8a.afm'
p396
aS'/usr/lib64/python2.4/site-packages/matplotlib/mpl-data/fonts/afm/psyr.afm'
p397
aS'/usr/lib64/python2.4/site-packages/matplotlib/mpl-data/fonts/afm/phvb8an.afm'
p398
aS'/usr/lib64/python2.4/site-packages/matplotlib/mpl-data/fonts/afm/phvr8a.afm'
p399
aS'/usr/lib64/python2.4/site-packages/matplotlib/mpl-data/fonts/afm/pbkd8a.afm'
p400
aS'/usr/lib64/python2.4/site-packages/matplotlib/mpl-data/fonts/afm/pbkdi8a.afm'
p401
aS'/usr/lib64/python2.4/site-packages/matplotlib/mpl-data/fonts/afm/pplbi8a.afm'
p402
aS'/usr/lib64/python2.4/site-packages/matplotlib/mpl-data/fonts/afm/pplr8a.afm'
p403
aS'/usr/lib64/python2.4/site-packages/matplotlib/mpl-data/fonts/afm/pncbi8a.afm'
p404
aS'/usr/lib64/python2.4/site-packages/matplotlib/mpl-data/fonts/afm/ptmr8a.afm'
p405
aS'/usr/lib64/python2.4/site-packages/matplotlib/mpl-data/fonts/afm/pbkl8a.afm'
p406
aS'/usr/lib64/python2.4/site-packages/matplotlib/mpl-data/fonts/afm/pncr8a.afm'
p407
aS'/usr/lib64/python2.4/site-packages/matplotlib/mpl-data/fonts/afm/phvl8a.afm'
p408
aS'/usr/lib64/python2.4/site-packages/matplotlib/mpl-data/fonts/afm/pncri8a.afm'
p409
aS'/usr/lib64/python2.4/site-packages/matplotlib/mpl-data/fonts/afm/phvbo8an.afm'
p410
aS'/usr/lib64/python2.4/site-packages/matplotlib/mpl-data/fonts/afm/pncb8a.afm'
p411
aS'/usr/lib64/python2.4/site-packages/matplotlib/mpl-data/fonts/afm/pplri8a.afm'
p412
aS'/usr/lib64/python2.4/site-packages/matplotlib/mpl-data/fonts/afm/pzcmi8a.afm'
p413
aS'/usr/lib64/python2.4/site-packages/matplotlib/mpl-data/fonts/afm/phvb8a.afm'
p414
aS'/usr/lib64/python2.4/site-packages/matplotlib/mpl-data/fonts/afm/putb8a.afm'
p415
aS'/usr/lib64/python2.4/site-packages/matplotlib/mpl-data/fonts/afm/pplb8a.afm'
p416
aS'/usr/lib64/python2.4/site-packages/matplotlib/mpl-data/fonts/afm/pagk8a.afm'
p417
aS'/usr/lib64/python2.4/site-packages/matplotlib/mpl-data/fonts/afm/cmmi10.afm'
p418
aS'/usr/lib64/python2.4/site-packages/matplotlib/mpl-data/fonts/afm/pcrro8a.afm'
p419
aS'/usr/lib64/python2.4/site-packages/matplotlib/mpl-data/fonts/afm/cmtt10.afm'
p420
aS'/usr/lib64/python2.4/site-packages/matplotlib/mpl-data/fonts/afm/pagd8a.afm'
p421
aS'/usr/share/fonts/default/ghostscript/fcyri.afm'
p422
aS'/usr/share/fonts/default/Type1/n021023l.afm'
p423
aS'/usr/share/fonts/default/Type1/p052003l.afm'
p424
aS'/usr/share/fonts/default/Type1/b018032l.afm'
p425
aS'/usr/share/fonts/default/Type1/n019064l.afm'
p426
aS'/usr/share/fonts/default/Type1/p052024l.afm'
p427
aS'/usr/share/fonts/default/Type1/n019003l.afm'
p428
aS'/usr/share/fonts/default/Type1/n021003l.afm'
p429
aS'/usr/share/fonts/default/Type1/b018035l.afm'
p430
aS'/usr/share/fonts/default/ghostscript/u003043t.afm'
p431
aS'/usr/share/fonts/default/Type1/n022023l.afm'
p432
aS'/usr/share/fonts/default/Type1/n021024l.afm'
p433
aS'/usr/share/fonts/default/Type1/a010033l.afm'
p434
aS'/usr/share/fonts/default/Type1/p052004l.afm'
p435
aS'/usr/share/fonts/default/Type1/n019023l.afm'
p436
aS'/usr/share/fonts/default/Type1/n022004l.afm'
p437
aS'/usr/share/fonts/default/Type1/n019063l.afm'
p438
aS'/usr/share/fonts/default/Type1/n019043l.afm'
p439
aS'/usr/share/fonts/default/ghostscript/bchri.afm'
p440
aS'/usr/share/fonts/default/ghostscript/bchb.afm'
p441
aS'/usr/share/fonts/default/Type1/n019044l.afm'
p442
aS'/usr/share/fonts/default/Type1/n021004l.afm'
p443
aS'/usr/share/fonts/default/ghostscript/bchbi.afm'
p444
aS'/usr/share/fonts/default/Type1/n019024l.afm'
p445
aS'/usr/share/fonts/default/Type1/a010035l.afm'
p446
aS'/usr/share/fonts/default/ghostscript/fcyr.afm'
p447
aS'/usr/share/fonts/default/ghostscript/bchr.afm'
p448
aS'/usr/share/fonts/default/Type1/a010013l.afm'
p449
aS'/usr/share/fonts/default/Type1/z003034l.afm'
p450
aS'/usr/share/fonts/default/Type1/c059036l.afm'
p451
aS'/usr/share/fonts/default/Type1/n019004l.afm'
p452
aS'/usr/share/fonts/default/Type1/s050000l.afm'
p453
aS'/usr/share/fonts/default/Type1/b018012l.afm'
p454
aS'/usr/share/fonts/default/Type1/d050000l.afm'
p455
aS'/usr/share/fonts/default/Type1/c059013l.afm'
p456
aS'/usr/share/fonts/default/Type1/n022024l.afm'
p457
aS'/usr/share/fonts/default/Type1/a010015l.afm'
p458
aS'/usr/share/fonts/default/Type1/c059033l.afm'
p459
aS'/usr/share/fonts/default/Type1/n022003l.afm'
p460
aS'/usr/share/fonts/default/ghostscript/u004006t.afm'
p461
aS'/usr/share/fonts/default/Type1/p052023l.afm'
p462
aS'/usr/share/fonts/default/Type1/b018015l.afm'
p463
aS'/usr/share/fonts/default/Type1/c059016l.afm'
p464
asS'afmlist'
p465
(lp466
g7
(g8
g9
NtRp467
(dp468
g12
g13
sg14
S'Courier'
p469
sg16
I500
sg17
g13
sg18
g13
sg19
g376
sg21
g22
sbag7
(g8
g9
NtRp470
(dp471
g12
g25
sg14
S'Helvetica'
p472
sg16
I700
sg17
g13
sg18
g13
sg19
g377
sg21
g22
sbag7
(g8
g9
NtRp473
(dp474
g12
g25
sg14
S'Times'
p475
sg16
I700
sg17
g13
sg18
g13
sg19
g378
sg21
g22
sbag7
(g8
g9
NtRp476
(dp477
g12
g25
sg14
S'Computer Modern'
p478
sg16
I500
sg17
g13
sg18
g13
sg19
g379
sg21
g22
sbag7
(g8
g9
NtRp479
(dp480
g12
g13
sg14
S'Times'
p481
sg16
I700
sg17
g13
sg18
g13
sg19
g380
sg21
g22
sbag7
(g8
g9
NtRp482
(dp483
g12
g25
sg14
S'Helvetica'
p484
sg16
I500
sg17
g13
sg18
g13
sg19
g381
sg21
g22
sbag7
(g8
g9
NtRp485
(dp486
g12
g13
sg14
S'Computer Modern'
p487
sg16
I500
sg17
g13
sg18
g13
sg19
g382
sg21
g22
sbag7
(g8
g9
NtRp488
(dp489
g12
g13
sg14
S'Courier'
p490
sg16
I700
sg17
g13
sg18
g13
sg19
g383
sg21
g22
sbag7
(g8
g9
NtRp491
(dp492
g12
g25
sg14
S'ITC Avant Garde Gothic'
p493
sg16
I600
sg17
g13
sg18
g13
sg19
g384
sg21
g22
sbag7
(g8
g9
NtRp494
(dp495
g12
g25
sg14
S'Utopia'
p496
sg16
I700
sg17
g13
sg18
g13
sg19
g385
sg21
g22
sbag7
(g8
g9
NtRp497
(dp498
g12
g13
sg14
S'Computer Modern'
p499
sg16
I500
sg17
g13
sg18
g13
sg19
g386
sg21
g22
sbag7
(g8
g9
NtRp500
(dp501
g12
g25
sg14
S'ITC Bookman'
p502
sg16
I200
sg17
g13
sg18
g13
sg19
g387
sg21
g22
sbag7
(g8
g9
NtRp503
(dp504
g12
g13
sg14
S'ITC Zapf Dingbats'
p505
sg16
I500
sg17
g13
sg18
g13
sg19
g388
sg21
g22
sbag7
(g8
g9
NtRp506
(dp507
g12
g13
sg14
S'Utopia'
p508
sg16
I400
sg17
g13
sg18
g13
sg19
g389
sg21
g22
sbag7
(g8
g9
NtRp509
(dp510
g12
g25
sg14
S'Utopia'
p511
sg16
I400
sg17
g13
sg18
g13
sg19
g390
sg21
g22
sbag7
(g8
g9
NtRp512
(dp513
g12
g25
sg14
S'Helvetica'
p514
sg16
I200
sg17
g13
sg18
g13
sg19
g391
sg21
g22
sbag7
(g8
g9
NtRp515
(dp516
g12
g25
sg14
S'Courier'
p517
sg16
I700
sg17
g13
sg18
g13
sg19
g392
sg21
g22
sbag7
(g8
g9
NtRp518
(dp519
g12
g25
sg14
S'Helvetica'
p520
sg16
I500
sg17
g13
sg18
g13
sg19
g393
sg21
g22
sbag7
(g8
g9
NtRp521
(dp522
g12
g13
sg14
S'Helvetica'
p523
sg16
I500
sg17
g13
sg18
g13
sg19
g394
sg21
g22
sbag7
(g8
g9
NtRp524
(dp525
g12
g25
sg14
S'ITC Avant Garde Gothic'
p526
sg16
I400
sg17
g13
sg18
g13
sg19
g395
sg21
g22
sbag7
(g8
g9
NtRp527
(dp528
g12
g25
sg14
S'Times'
p529
sg16
I500
sg17
g13
sg18
g13
sg19
g396
sg21
g22
sbag7
(g8
g9
NtRp530
(dp531
g12
g13
sg14
S'Symbol'
p532
sg16
I500
sg17
g13
sg18
g13
sg19
g397
sg21
g22
sbag7
(g8
g9
NtRp533
(dp534
g12
g13
sg14
S'Helvetica'
p535
sg16
I700
sg17
g13
sg18
g13
sg19
g398
sg21
g22
sbag7
(g8
g9
NtRp536
(dp537
g12
g13
sg14
S'Helvetica'
p538
sg16
I500
sg17
g13
sg18
g13
sg19
g399
sg21
g22
sbag7
(g8
g9
NtRp539
(dp540
g12
g13
sg14
S'ITC Bookman'
p541
sg16
I600
sg17
g13
sg18
g13
sg19
g400
sg21
g22
sbag7
(g8
g9
NtRp542
(dp543
g12
g25
sg14
S'ITC Bookman'
p544
sg16
I600
sg17
g13
sg18
g13
sg19
g401
sg21
g22
sbag7
(g8
g9
NtRp545
(dp546
g12
g25
sg14
S'Palatino'
p547
sg16
I700
sg17
g13
sg18
g13
sg19
g402
sg21
g22
sbag7
(g8
g9
NtRp548
(dp549
g12
g13
sg14
S'Palatino'
p550
sg16
I500
sg17
g13
sg18
g13
sg19
g403
sg21
g22
sbag7
(g8
g9
NtRp551
(dp552
g12
g25
sg14
S'New Century Schoolbook'
p553
sg16
I700
sg17
g13
sg18
g13
sg19
g404
sg21
g22
sbag7
(g8
g9
NtRp554
(dp555
g12
g13
sg14
S'Times'
p556
sg16
I500
sg17
g13
sg18
g13
sg19
g405
sg21
g22
sbag7
(g8
g9
NtRp557
(dp558
g12
g13
sg14
S'ITC Bookman'
p559
sg16
I200
sg17
g13
sg18
g13
sg19
g406
sg21
g22
sbag7
(g8
g9
NtRp560
(dp561
g12
g13
sg14
S'New Century Schoolbook'
p562
sg16
I500
sg17
g13
sg18
g13
sg19
g407
sg21
g22
sbag7
(g8
g9
NtRp563
(dp564
g12
g13
sg14
S'Helvetica'
p565
sg16
I200
sg17
g13
sg18
g13
sg19
g408
sg21
g22
sbag7
(g8
g9
NtRp566
(dp567
g12
g25
sg14
S'New Century Schoolbook'
p568
sg16
I500
sg17
g13
sg18
g13
sg19
g409
sg21
g22
sbag7
(g8
g9
NtRp569
(dp570
g12
g25
sg14
S'Helvetica'
p571
sg16
I700
sg17
g13
sg18
g13
sg19
g410
sg21
g22
sbag7
(g8
g9
NtRp572
(dp573
g12
g13
sg14
S'New Century Schoolbook'
p574
sg16
I700
sg17
g13
sg18
g13
sg19
g411
sg21
g22
sbag7
(g8
g9
NtRp575
(dp576
g12
g25
sg14
S'Palatino'
p577
sg16
I500
sg17
g13
sg18
g13
sg19
g412
sg21
g22
sbag7
(g8
g9
NtRp578
(dp579
g12
g25
sg14
S'ITC Zapf Chancery'
p580
sg16
I500
sg17
g13
sg18
g13
sg19
g413
sg21
g22
sbag7
(g8
g9
NtRp581
(dp582
g12
g13
sg14
S'Helvetica'
p583
sg16
I700
sg17
g13
sg18
g13
sg19
g414
sg21
g22
sbag7
(g8
g9
NtRp584
(dp585
g12
g13
sg14
S'Utopia'
p586
sg16
I700
sg17
g13
sg18
g13
sg19
g415
sg21
g22
sbag7
(g8
g9
NtRp587
(dp588
g12
g13
sg14
S'Palatino'
p589
sg16
I700
sg17
g13
sg18
g13
sg19
g416
sg21
g22
sbag7
(g8
g9
NtRp590
(dp591
g12
g13
sg14
S'ITC Avant Garde Gothic'
p592
sg16
I400
sg17
g13
sg18
g13
sg19
g417
sg21
g22
sbag7
(g8
g9
NtRp593
(dp594
g12
g25
sg14
S'Computer Modern'
p595
sg16
I500
sg17
g13
sg18
g13
sg19
g418
sg21
g22
sbag7
(g8
g9
NtRp596
(dp597
g12
g25
sg14
S'Courier'
p598
sg16
I500
sg17
g13
sg18
g13
sg19
g419
sg21
g22
sbag7
(g8
g9
NtRp599
(dp600
g12
g13
sg14
S'Computer Modern'
p601
sg16
I500
sg17
g13
sg18
g13
sg19
g420
sg21
g22
sbag7
(g8
g9
NtRp602
(dp603
g12
g13
sg14
S'ITC Avant Garde Gothic'
p604
sg16
I600
sg17
g13
sg18
g13
sg19
g421
sg21
g22
sbag7
(g8
g9
NtRp605
(dp606
g12
g25
sg14
S'Cyrillic'
p607
sg16
I500
sg17
g13
sg18
g13
sg19
g422
sg21
g22
sbag7
(g8
g9
NtRp608
(dp609
g12
g25
sg14
S'Nimbus Roman No9 L'
p610
sg16
I400
sg17
g13
sg18
g13
sg19
g423
sg21
g22
sbag7
(g8
g9
NtRp611
(dp612
g12
g13
sg14
S'URW Palladio L'
p613
sg16
I400
sg17
g13
sg18
g13
sg19
g424
sg21
g22
sbag7
(g8
g9
NtRp614
(dp615
g12
g25
sg14
S'URW Bookman L'
p616
sg16
I400
sg17
g13
sg18
g13
sg19
g425
sg21
g22
sbag7
(g8
g9
NtRp617
(dp618
g12
g25
sg14
S'Nimbus Sans L Condensed'
p619
sg16
I700
sg17
g13
sg18
g13
sg19
g426
sg21
g22
sbag7
(g8
g9
NtRp620
(dp621
g12
g25
sg14
S'URW Palladio L'
p622
sg16
I700
sg17
g13
sg18
g13
sg19
g427
sg21
g22
sbag7
(g8
g9
NtRp623
(dp624
g12
g13
sg14
S'Nimbus Sans L'
p625
sg16
I400
sg17
g13
sg18
g13
sg19
g428
sg21
g22
sbag7
(g8
g9
NtRp626
(dp627
g12
g13
sg14
S'Nimbus Roman No9 L'
p628
sg16
I400
sg17
g13
sg18
g13
sg19
g429
sg21
g22
sbag7
(g8
g9
NtRp629
(dp630
g12
g25
sg14
S'URW Bookman L'
p631
sg16
I700
sg17
g13
sg18
g13
sg19
g430
sg21
g22
sbag7
(g8
g9
NtRp632
(dp633
g12
g13
sg14
S'URW Antiqua T'
p634
sg16
I400
sg17
g13
sg18
g13
sg19
g431
sg21
g22
sbag7
(g8
g9
NtRp635
(dp636
g12
g25
sg14
S'Nimbus Mono L'
p637
sg16
I400
sg17
g13
sg18
g13
sg19
g432
sg21
g22
sbag7
(g8
g9
NtRp638
(dp639
g12
g25
sg14
S'Nimbus Roman No9 L'
p640
sg16
I700
sg17
g13
sg18
g13
sg19
g433
sg21
g22
sbag7
(g8
g9
NtRp641
(dp642
g12
g25
sg14
S'URW Gothic L'
p643
sg16
I400
sg17
g13
sg18
g13
sg19
g434
sg21
g22
sbag7
(g8
g9
NtRp644
(dp645
g12
g13
sg14
S'URW Palladio L'
p646
sg16
I700
sg17
g13
sg18
g13
sg19
g435
sg21
g22
sbag7
(g8
g9
NtRp647
(dp648
g12
g25
sg14
S'Nimbus Sans L'
p649
sg16
I400
sg17
g13
sg18
g13
sg19
g436
sg21
g22
sbag7
(g8
g9
NtRp650
(dp651
g12
g13
sg14
S'Nimbus Mono L'
p652
sg16
I700
sg17
g13
sg18
g13
sg19
g437
sg21
g22
sbag7
(g8
g9
NtRp653
(dp654
g12
g25
sg14
S'Nimbus Sans L Condensed'
p655
sg16
I400
sg17
g13
sg18
g13
sg19
g438
sg21
g22
sbag7
(g8
g9
NtRp656
(dp657
g12
g13
sg14
S'Nimbus Sans L Condensed'
p658
sg16
I400
sg17
g13
sg18
g13
sg19
g439
sg21
g22
sbag7
(g8
g9
NtRp659
(dp660
g12
g25
sg14
S'Bitstream Charter'
p661
sg16
I400
sg17
g13
sg18
g13
sg19
g440
sg21
g22
sbag7
(g8
g9
NtRp662
(dp663
g12
g13
sg14
S'Bitstream Charter'
p664
sg16
I700
sg17
g13
sg18
g13
sg19
g441
sg21
g22
sbag7
(g8
g9
NtRp665
(dp666
g12
g13
sg14
S'Nimbus Sans L Condensed'
p667
sg16
I700
sg17
g13
sg18
g13
sg19
g442
sg21
g22
sbag7
(g8
g9
NtRp668
(dp669
g12
g13
sg14
S'Nimbus Roman No9 L'
p670
sg16
I700
sg17
g13
sg18
g13
sg19
g443
sg21
g22
sbag7
(g8
g9
NtRp671
(dp672
g12
g25
sg14
S'Bitstream Charter'
p673
sg16
I700
sg17
g13
sg18
g13
sg19
g444
sg21
g22
sbag7
(g8
g9
NtRp674
(dp675
g12
g25
sg14
S'Nimbus Sans L'
p676
sg16
I700
sg17
g13
sg18
g13
sg19
g445
sg21
g22
sbag7
(g8
g9
NtRp677
(dp678
g12
g25
sg14
S'URW Gothic L'
p679
sg16
I600
sg17
g13
sg18
g13
sg19
g446
sg21
g22
sbag7
(g8
g9
NtRp680
(dp681
g12
g13
sg14
S'Cyrillic'
p682
sg16
I500
sg17
g13
sg18
g13
sg19
g447
sg21
g22
sbag7
(g8
g9
NtRp683
(dp684
g12
g13
sg14
S'Bitstream Charter'
p685
sg16
I400
sg17
g13
sg18
g13
sg19
g448
sg21
g22
sbag7
(g8
g9
NtRp686
(dp687
g12
g13
sg14
S'URW Gothic L'
p688
sg16
I400
sg17
g13
sg18
g13
sg19
g449
sg21
g22
sbag7
(g8
g9
NtRp689
(dp690
g12
g25
sg14
S'URW Chancery L'
p691
sg16
I500
sg17
g13
sg18
g13
sg19
g450
sg21
g22
sbag7
(g8
g9
NtRp692
(dp693
g12
g25
sg14
S'Century Schoolbook L'
p694
sg16
I700
sg17
g13
sg18
g13
sg19
g451
sg21
g22
sbag7
(g8
g9
NtRp695
(dp696
g12
g13
sg14
S'Nimbus Sans L'
p697
sg16
I700
sg17
g13
sg18
g13
sg19
g452
sg21
g22
sbag7
(g8
g9
NtRp698
(dp699
g12
g13
sg14
S'Standard Symbols L'
p700
sg16
I400
sg17
g13
sg18
g13
sg19
g453
sg21
g22
sbag7
(g8
g9
NtRp701
(dp702
g12
g13
sg14
S'URW Bookman L'
p703
sg16
I400
sg17
g13
sg18
g13
sg19
g454
sg21
g22
sbag7
(g8
g9
NtRp704
(dp705
g12
g13
sg14
S'Dingbats'
p706
sg16
I400
sg17
g13
sg18
g13
sg19
g455
sg21
g22
sbag7
(g8
g9
NtRp707
(dp708
g12
g13
sg14
S'Century Schoolbook L'
p709
sg16
I400
sg17
g13
sg18
g13
sg19
g456
sg21
g22
sbag7
(g8
g9
NtRp710
(dp711
g12
g25
sg14
S'Nimbus Mono L'
p712
sg16
I700
sg17
g13
sg18
g13
sg19
g457
sg21
g22
sbag7
(g8
g9
NtRp713
(dp714
g12
g13
sg14
S'URW Gothic L'
p715
sg16
I600
sg17
g13
sg18
g13
sg19
g458
sg21
g22
sbag7
(g8
g9
NtRp716
(dp717
g12
g25
sg14
S'Century Schoolbook L'
p718
sg16
I400
sg17
g13
sg18
g13
sg19
g459
sg21
g22
sbag7
(g8
g9
NtRp719
(dp720
g12
g13
sg14
S'Nimbus Mono L'
p721
sg16
I400
sg17
g13
sg18
g13
sg19
g460
sg21
g22
sbag7
(g8
g9
NtRp722
(dp723
g12
g13
sg14
S'URW Grotesk T'
p724
sg16
I400
sg17
g13
sg18
g13
sg19
g461
sg21
g22
sbag7
(g8
g9
NtRp725
(dp726
g12
g25
sg14
S'URW Palladio L'
p727
sg16
I400
sg17
g13
sg18
g13
sg19
g462
sg21
g22
sbag7
(g8
g9
NtRp728
(dp729
g12
g13
sg14
S'URW Bookman L'
p730
sg16
I700
sg17
g13
sg18
g13
sg19
g463
sg21
g22
sbag7
(g8
g9
NtRp731
(dp732
g12
g13
sg14
S'Century Schoolbook L'
p733
sg16
I700
sg17
g13
sg18
g13
sg19
g464
sg21
g22
sbasb.